target datalayout = "e-m:e-p270:32:32-p271:32:32-p272:64:64-i64:64-i128:128-f80:128-n8:16:32:64-S128"
target triple = "x86_64-pc-linux-gnu"

%"struct.google::logging::internal::CrashReason" = type <{ ptr, i32, [4 x i8], ptr, [32 x ptr], i32, [4 x i8] }>
%"struct.google::logging::internal::LogMessageData" = type { i32, [30001 x i8], %"class.google::LogMessage::LogStream", i32, i32, { i64, i64 }, %union.anon.27, i64, i64, i64, ptr, ptr, i8, i8, %"class.std::thread::id" }
%"class.google::LogMessage::LogStream" = type { %"class.std::basic_ostream.base", %"class.google::base_logging::LogStreamBuf", i64, ptr, %"class.std::basic_ios" }
%"class.std::basic_ostream.base" = type { ptr }
%"class.google::base_logging::LogStreamBuf" = type { %"class.std::basic_streambuf" }
%"class.std::basic_streambuf" = type { ptr, ptr, ptr, ptr, ptr, ptr, ptr, %"class.std::locale" }
%"class.std::locale" = type { ptr }
%"class.std::basic_ios" = type { %"class.std::ios_base", ptr, i8, i8, ptr, ptr, ptr, ptr }
%"class.std::ios_base" = type { ptr, i64, i64, i32, i32, i32, ptr, %"struct.std::ios_base::_Words", [8 x %"struct.std::ios_base::_Words"], i32, ptr, %"class.std::locale" }
%"struct.std::ios_base::_Words" = type { ptr, i64 }
%union.anon.27 = type { ptr }
%"class.std::thread::id" = type { i64 }

@_ZN6googleL24fatal_msg_data_exclusiveE = internal global %"struct.google::logging::internal::LogMessageData" zeroinitializer, align 8

; Function Attrs: mustprogress uwtable
define void @_ZN6google10LogMessage17RecordCrashReasonEPNS_7logging8internal11CrashReasonE(ptr noundef nonnull align 8 dereferenceable(96) %0, ptr noundef %1) #0 align 2 {
  %3 = alloca ptr, align 8
  %4 = alloca ptr, align 8
  store ptr %0, ptr %3, align 8, !tbaa !128
  store ptr %1, ptr %4, align 8, !tbaa !115
  %5 = load ptr, ptr getelementptr inbounds nuw (%"struct.google::logging::internal::LogMessageData", ptr @_ZN6googleL24fatal_msg_data_exclusiveE, i32 0, i32 11), align 8, !tbaa !148
  %6 = load ptr, ptr %4, align 8, !tbaa !115
  %7 = getelementptr inbounds nuw %"struct.google::logging::internal::CrashReason", ptr %6, i32 0, i32 0
  store ptr %5, ptr %7, align 8, !tbaa !117
  %8 = load i32, ptr getelementptr inbounds nuw (%"struct.google::logging::internal::LogMessageData", ptr @_ZN6googleL24fatal_msg_data_exclusiveE, i32 0, i32 4), align 4, !tbaa !141
  %9 = load ptr, ptr %4, align 8, !tbaa !115
  %10 = getelementptr inbounds nuw %"struct.google::logging::internal::CrashReason", ptr %9, i32 0, i32 1
  store i32 %8, ptr %10, align 8, !tbaa !119
  %11 = load i64, ptr getelementptr inbounds nuw (%"struct.google::logging::internal::LogMessageData", ptr @_ZN6googleL24fatal_msg_data_exclusiveE, i32 0, i32 7), align 8, !tbaa !150
  %12 = getelementptr inbounds nuw i8, ptr getelementptr inbounds nuw (%"struct.google::logging::internal::LogMessageData", ptr @_ZN6googleL24fatal_msg_data_exclusiveE, i32 0, i32 1), i64 %11
  %13 = load ptr, ptr %4, align 8, !tbaa !115
  %14 = getelementptr inbounds nuw %"struct.google::logging::internal::CrashReason", ptr %13, i32 0, i32 3
  store ptr %12, ptr %14, align 8, !tbaa !120
  %15 = load ptr, ptr %4, align 8, !tbaa !115
  %16 = getelementptr inbounds nuw %"struct.google::logging::internal::CrashReason", ptr %15, i32 0, i32 4
  %17 = getelementptr inbounds [32 x ptr], ptr %16, i64 0, i64 0
  %18 = call noundef i32 @_ZN6google24glog_internal_namespace_13GetStackTraceEPPvii(ptr noundef %17, i32 noundef 32, i32 noundef 4)
  %19 = load ptr, ptr %4, align 8, !tbaa !115
  %20 = getelementptr inbounds nuw %"struct.google::logging::internal::CrashReason", ptr %19, i32 0, i32 5
  store i32 %18, ptr %20, align 8, !tbaa !121
  ret void
}