; Function Attrs: mustprogress uwtable
define void @_ZN6google10LogMessage17RecordCrashReasonEPNS_7logging8internal11CrashReasonE(ptr noundef nonnull readnone align 8 captures(none) dereferenceable(96) %0, ptr noundef initializes((0, 12), (16, 24)) %1) local_unnamed_addr #0 align 2 {
  %3 = load ptr, ptr getelementptr inbounds nuw (i8, ptr @_ZN6googleL24fatal_msg_data_exclusiveE, i64 30424), align 8, !tbaa !104
  store ptr %3, ptr %1, align 8, !tbaa !134
  %4 = load i32, ptr getelementptr inbounds nuw (i8, ptr @_ZN6googleL24fatal_msg_data_exclusiveE, i64 30364), align 4, !tbaa !100
  %5 = getelementptr inbounds nuw i8, ptr %1, i64 8
  store i32 %4, ptr %5, align 8, !tbaa !136
  %6 = load i64, ptr getelementptr inbounds nuw (i8, ptr @_ZN6googleL24fatal_msg_data_exclusiveE, i64 30392), align 8, !tbaa !125
  %7 = getelementptr inbounds nuw i8, ptr getelementptr inbounds nuw (i8, ptr @_ZN6googleL24fatal_msg_data_exclusiveE, i64 4), i64 %6
  %8 = getelementptr inbounds nuw i8, ptr %1, i64 16
  store ptr %7, ptr %8, align 8, !tbaa !137
  %9 = getelementptr inbounds nuw i8, ptr %1, i64 24
  %10 = tail call noundef i32 @_ZN6google24glog_internal_namespace_13GetStackTraceEPPvii(ptr noundef nonnull %9, i32 noundef 32, i32 noundef 4)
  %11 = getelementptr inbounds nuw i8, ptr %1, i64 280
  store i32 %10, ptr %11, align 8, !tbaa !138
  ret void
}